target datalayout = "e-m:e-p270:32:32-p271:32:32-p272:64:64-i64:64-i128:128-f80:128-n8:16:32:64-S128"
target triple = "x86_64-pc-linux-gnu"

%struct.RelOptInfo = type { i32, i32, ptr, double, i8, i8, i8, ptr, ptr, ptr, ptr, ptr, ptr, ptr, ptr, ptr, ptr, i32, i32, i32, i16, i16, ptr, ptr, ptr, ptr, ptr, ptr, ptr, ptr, i32, double, double, ptr, ptr, ptr, i32, i32, i32, i32, i8, ptr, ptr, ptr, ptr, ptr, %struct.QualCost, i32, ptr, i8, i8, ptr, ptr, ptr, ptr, i32, ptr, i8, ptr, ptr, ptr, ptr, ptr, ptr }
%struct.QualCost = type { double, double }
%struct.PathTarget = type { i32, ptr, ptr, %struct.QualCost, i32, i32 }

; Function Attrs: nounwind uwtable
define internal void @set_dummy_rel_pathlist(ptr noundef %0) #0 {
  %2 = alloca ptr, align 8
  store ptr %0, ptr %2, align 8
  %3 = load ptr, ptr %2, align 8
  %4 = getelementptr inbounds nuw %struct.RelOptInfo, ptr %3, i32 0, i32 3
  store double 0.000000e+00, ptr %4, align 8
  %5 = load ptr, ptr %2, align 8
  %6 = getelementptr inbounds nuw %struct.RelOptInfo, ptr %5, i32 0, i32 7
  %7 = load ptr, ptr %6, align 8
  %8 = getelementptr inbounds nuw %struct.PathTarget, ptr %7, i32 0, i32 4
  store i32 0, ptr %8, align 8
  %9 = load ptr, ptr %2, align 8
  %10 = getelementptr inbounds nuw %struct.RelOptInfo, ptr %9, i32 0, i32 8
  store ptr null, ptr %10, align 8
  %11 = load ptr, ptr %2, align 8
  %12 = getelementptr inbounds nuw %struct.RelOptInfo, ptr %11, i32 0, i32 10
  store ptr null, ptr %12, align 8
  %13 = load ptr, ptr %2, align 8
  %14 = load ptr, ptr %2, align 8
  %15 = load ptr, ptr %2, align 8
  %16 = getelementptr inbounds nuw %struct.RelOptInfo, ptr %15, i32 0, i32 16
  %17 = load ptr, ptr %16, align 8
  %18 = call ptr @create_append_path(ptr noundef null, ptr noundef %14, ptr noundef null, ptr noundef null, ptr noundef null, ptr noundef %17, i32 noundef 0, i1 noundef zeroext false, double noundef -1.000000e+00)
  call void @add_path(ptr noundef %13, ptr noundef %18)
  %19 = load ptr, ptr %2, align 8
  call void @set_cheapest(ptr noundef %19)
  ret void
}