; Function Attrs: nounwind uwtable
define internal fastcc void @set_dummy_rel_pathlist(ptr noundef initializes((16, 24), (40, 48), (56, 64)) %0) unnamed_addr #0 {
  %2 = getelementptr inbounds nuw i8, ptr %0, i64 16
  store double 0.000000e+00, ptr %2, align 8
  %3 = getelementptr inbounds nuw i8, ptr %0, i64 32
  %4 = load ptr, ptr %3, align 8
  %5 = getelementptr inbounds nuw i8, ptr %4, i64 40
  store i32 0, ptr %5, align 8
  %6 = getelementptr inbounds nuw i8, ptr %0, i64 40
  store ptr null, ptr %6, align 8
  %7 = getelementptr inbounds nuw i8, ptr %0, i64 56
  store ptr null, ptr %7, align 8
  %8 = getelementptr inbounds nuw i8, ptr %0, i64 104
  %9 = load ptr, ptr %8, align 8
  %10 = tail call ptr @create_append_path(ptr noundef null, ptr noundef %0, ptr noundef null, ptr noundef null, ptr noundef null, ptr noundef %9, i32 noundef 0, i1 noundef zeroext false, double noundef -1.000000e+00) #9
  tail call void @add_path(ptr noundef %0, ptr noundef %10) #9
  tail call void @set_cheapest(ptr noundef %0) #9
  ret void
}